; Function Attrs: mustprogress uwtable
define void @_ZN6duckdb24ParquetGetVirtualColumnsERNS_13ClientContextENS_12optional_ptrINS_12FunctionDataELb1EEE(ptr dead_on_unwind noalias writable sret(%"class.std::unordered_map.24") align 8 %0, ptr noundef nonnull align 8 dereferenceable(648) %1, ptr %2) #3 personality ptr @__gxx_personality_v0 {
  %4 = alloca %"class.duckdb::optional_ptr", align 8
  store ptr %2, ptr %4, align 8
  call void @_ZNK6duckdb12optional_ptrINS_12FunctionDataELb1EE10CheckValidEv(ptr noundef nonnull align 8 dereferenceable(8) %4)
  %5 = load ptr, ptr %4, align 8, !tbaa !23
  %6 = getelementptr inbounds nuw i8, ptr %0, i64 48
  store ptr %6, ptr %0, align 8, !tbaa !136
  %7 = getelementptr inbounds nuw i8, ptr %0, i64 8
  store i64 1, ptr %7, align 8, !tbaa !137
  %8 = getelementptr inbounds nuw i8, ptr %0, i64 16
  %9 = getelementptr inbounds nuw i8, ptr %0, i64 32
  call void @llvm.memset.p0.i64(ptr noundef nonnull align 8 dereferenceable(16) %8, i8 0, i64 16, i1 false)
  store float 1.000000e+00, ptr %9, align 8, !tbaa !15
  %10 = getelementptr inbounds nuw i8, ptr %0, i64 40
  call void @llvm.memset.p0.i64(ptr noundef nonnull align 8 dereferenceable(16) %10, i8 0, i64 16, i1 false)
  %11 = getelementptr inbounds nuw i8, ptr %5, i64 496
  invoke void @_ZN6duckdb15MultiFileReader17GetVirtualColumnsERNS_13ClientContextERNS_23MultiFileReaderBindDataERSt13unordered_mapImNS_11TableColumnESt4hashImESt8equal_toImESaISt4pairIKmS6_EEE(ptr noundef nonnull align 8 dereferenceable(648) %1, ptr noundef nonnull align 8 dereferenceable(65) %11, ptr noundef nonnull align 8 dereferenceable(56) %0)
          to label %12 unwind label %16

12:                                               ; preds = %3
  %13 = getelementptr inbounds nuw i8, ptr %5, i64 128
  %14 = icmp eq ptr %0, %13
  br i1 %14, label %_ZNSt13unordered_mapImN6duckdb11TableColumnESt4hashImESt8equal_toImESaISt4pairIKmS1_EEEaSERKSA_.exit, label %15

15:                                               ; preds = %12
  invoke void @_ZNSt10_HashtableImSt4pairIKmN6duckdb11TableColumnEESaIS4_ENSt8__detail10_Select1stESt8equal_toImESt4hashImENS6_18_Mod_range_hashingENS6_20_Default_ranged_hashENS6_20_Prime_rehash_policyENS6_17_Hashtable_traitsILb0ELb0ELb1EEEE18_M_assign_elementsIRKSH_EEvOT_(ptr noundef nonnull align 8 dereferenceable(56) %13, ptr noundef nonnull align 8 dereferenceable(56) %0)
          to label %_ZNSt13unordered_mapImN6duckdb11TableColumnESt4hashImESt8equal_toImESaISt4pairIKmS1_EEEaSERKSA_.exit unwind label %16

16:                                               ; preds = %15, %3
  %17 = landingpad { ptr, i32 }
          cleanup
  call void @_ZNSt13unordered_mapImN6duckdb11TableColumnESt4hashImESt8equal_toImESaISt4pairIKmS1_EEED2Ev(ptr noundef nonnull align 8 dereferenceable(56) %0) #27
  resume { ptr, i32 } %17

_ZNSt13unordered_mapImN6duckdb11TableColumnESt4hashImESt8equal_toImESaISt4pairIKmS1_EEEaSERKSA_.exit: ; preds = %12, %15
  ret void
}